target datalayout = "e-m:e-p270:32:32-p271:32:32-p272:64:64-i64:64-i128:128-f80:128-n8:16:32:64-S128"
target triple = "x86_64-pc-linux-gnu"

%struct.__va_list_tag = type { i32, i32, ptr, ptr }

; Function Attrs: mustprogress nounwind uwtable
define internal noundef zeroext i1 @_ZN6googleL8DoRawLogEPPcPmPKcz(ptr noundef %0, ptr noundef %1, ptr noundef %2, ...) #2 {
  %4 = alloca i1, align 1
  %5 = alloca ptr, align 8
  %6 = alloca ptr, align 8
  %7 = alloca ptr, align 8
  %8 = alloca [1 x %struct.__va_list_tag], align 16
  %9 = alloca i32, align 4
  store ptr %0, ptr %5, align 8
  store ptr %1, ptr %6, align 8
  store ptr %2, ptr %7, align 8
  %10 = getelementptr inbounds [1 x %struct.__va_list_tag], ptr %8, i64 0, i64 0
  call void @llvm.va_start(ptr %10)
  %11 = load ptr, ptr %5, align 8
  %12 = load ptr, ptr %11, align 8
  %13 = load ptr, ptr %6, align 8
  %14 = load i64, ptr %13, align 8
  %15 = load ptr, ptr %7, align 8
  %16 = getelementptr inbounds [1 x %struct.__va_list_tag], ptr %8, i64 0, i64 0
  %17 = call i32 @vsnprintf(ptr noundef %12, i64 noundef %14, ptr noundef %15, ptr noundef %16) #14
  store i32 %17, ptr %9, align 4
  %18 = getelementptr inbounds [1 x %struct.__va_list_tag], ptr %8, i64 0, i64 0
  call void @llvm.va_end(ptr %18)
  %19 = load i32, ptr %9, align 4
  %20 = icmp slt i32 %19, 0
  br i1 %20, label %27, label %21

21:                                               ; preds = %3
  %22 = load i32, ptr %9, align 4
  %23 = sext i32 %22 to i64
  %24 = load ptr, ptr %6, align 8
  %25 = load i64, ptr %24, align 8
  %26 = icmp ugt i64 %23, %25
  br i1 %26, label %27, label %28

27:                                               ; preds = %21, %3
  store i1 false, ptr %4, align 1
  br label %39

28:                                               ; preds = %21
  %29 = load i32, ptr %9, align 4
  %30 = sext i32 %29 to i64
  %31 = load ptr, ptr %6, align 8
  %32 = load i64, ptr %31, align 8
  %33 = sub i64 %32, %30
  store i64 %33, ptr %31, align 8
  %34 = load i32, ptr %9, align 4
  %35 = load ptr, ptr %5, align 8
  %36 = load ptr, ptr %35, align 8
  %37 = sext i32 %34 to i64
  %38 = getelementptr inbounds i8, ptr %36, i64 %37
  store ptr %38, ptr %35, align 8
  store i1 true, ptr %4, align 1
  br label %39

39:                                               ; preds = %28, %27
  %40 = load i1, ptr %4, align 1
  ret i1 %40
}