; Function Attrs: mustprogress nofree nounwind uwtable
define internal void @_ZN6googleL8DoRawLogEPPcPmPKcz(ptr nocapture noundef %0, ptr nocapture noundef %1, ptr nocapture noundef readonly %2, ...) unnamed_addr #4 {
  %4 = alloca [1 x %struct.__va_list_tag], align 16
  call void @llvm.va_start(ptr nonnull %4)
  %5 = load ptr, ptr %0, align 8
  %6 = load i64, ptr %1, align 8
  %7 = call i32 @vsnprintf(ptr noundef %5, i64 noundef %6, ptr noundef %2, ptr noundef nonnull %4) #15
  call void @llvm.va_end(ptr nonnull %4)
  %8 = icmp slt i32 %7, 0
  br i1 %8, label %17, label %9

9:                                                ; preds = %3
  %10 = zext nneg i32 %7 to i64
  %11 = load i64, ptr %1, align 8
  %12 = icmp ult i64 %11, %10
  br i1 %12, label %17, label %13

13:                                               ; preds = %9
  %14 = sub i64 %11, %10
  store i64 %14, ptr %1, align 8
  %15 = load ptr, ptr %0, align 8
  %16 = getelementptr inbounds i8, ptr %15, i64 %10
  store ptr %16, ptr %0, align 8
  br label %17

17:                                               ; preds = %3, %9, %13
  ret void
}